; ModuleID = '46/872.c'
source_filename = "46/872.c"
target datalayout = "e-m:e-p270:32:32-p271:32:32-p272:64:64-i64:64-f80:128-n8:16:32:64-S128"
target triple = "x86_64-pc-linux-gnu"

@.str = private unnamed_addr constant [3 x i8] c"%d\00", align 1
@.str.1 = private unnamed_addr constant [4 x i8] c"%d\0A\00", align 1

; Function Attrs: noinline nounwind uwtable
define dso_local i32 @main() #0 {
  %1 = alloca i32, align 4
  %2 = alloca i32, align 4
  %3 = alloca i32, align 4
  %4 = alloca i32, align 4
  %5 = alloca i32, align 4
  %6 = alloca i32, align 4
  %7 = alloca [100 x [100 x i32]], align 16
  %8 = alloca i32, align 4
  %9 = alloca i32, align 4
  %10 = alloca i32, align 4
  %11 = alloca i32, align 4
  %12 = alloca i32, align 4
  %13 = alloca i32, align 4
  store i32 0, i32* %1, align 4
  store i32 0, i32* %12, align 4
  store i32 0, i32* %13, align 4
  %14 = call i32 (i8*, ...) @__isoc99_scanf(i8* getelementptr inbounds ([3 x i8], [3 x i8]* @.str, i64 0, i64 0), i32* %2)
  %15 = call i32 (i8*, ...) @__isoc99_scanf(i8* getelementptr inbounds ([3 x i8], [3 x i8]* @.str, i64 0, i64 0), i32* %3)
  store i32 0, i32* %8, align 4
  %16 = load i32, i32* %3, align 4
  %17 = sub nsw i32 %16, 1
  store i32 %17, i32* %9, align 4
  store i32 0, i32* %10, align 4
  %18 = load i32, i32* %2, align 4
  %19 = sub nsw i32 %18, 1
  store i32 %19, i32* %11, align 4
  store i32 0, i32* %4, align 4
  br label %20

20:                                               ; preds = %41, %0
  %21 = load i32, i32* %4, align 4
  %22 = load i32, i32* %2, align 4
  %23 = icmp slt i32 %21, %22
  br i1 %23, label %24, label %44

24:                                               ; preds = %20
  store i32 0, i32* %5, align 4
  br label %25

25:                                               ; preds = %37, %24
  %26 = load i32, i32* %5, align 4
  %27 = load i32, i32* %3, align 4
  %28 = icmp slt i32 %26, %27
  br i1 %28, label %29, label %40

29:                                               ; preds = %25
  %30 = load i32, i32* %4, align 4
  %31 = sext i32 %30 to i64
  %32 = getelementptr inbounds [100 x [100 x i32]], [100 x [100 x i32]]* %7, i64 0, i64 %31
  %33 = load i32, i32* %5, align 4
  %34 = sext i32 %33 to i64
  %35 = getelementptr inbounds [100 x i32], [100 x i32]* %32, i64 0, i64 %34
  %36 = call i32 (i8*, ...) @__isoc99_scanf(i8* getelementptr inbounds ([3 x i8], [3 x i8]* @.str, i64 0, i64 0), i32* %35)
  br label %37

37:                                               ; preds = %29
  %38 = load i32, i32* %5, align 4
  %39 = add nsw i32 %38, 1
  store i32 %39, i32* %5, align 4
  br label %25

40:                                               ; preds = %25
  br label %41

41:                                               ; preds = %40
  %42 = load i32, i32* %4, align 4
  %43 = add nsw i32 %42, 1
  store i32 %43, i32* %4, align 4
  br label %20

44:                                               ; preds = %20
  store i32 0, i32* %4, align 4
  store i32 0, i32* %5, align 4
  store i32 0, i32* %6, align 4
  br label %45

45:                                               ; preds = %119, %44
  %46 = load i32, i32* %6, align 4
  %47 = load i32, i32* %2, align 4
  %48 = load i32, i32* %3, align 4
  %49 = mul nsw i32 %47, %48
  %50 = icmp slt i32 %46, %49
  br i1 %50, label %51, label %122

51:                                               ; preds = %45
  %52 = load i32, i32* %4, align 4
  %53 = sext i32 %52 to i64
  %54 = getelementptr inbounds [100 x [100 x i32]], [100 x [100 x i32]]* %7, i64 0, i64 %53
  %55 = load i32, i32* %5, align 4
  %56 = sext i32 %55 to i64
  %57 = getelementptr inbounds [100 x i32], [100 x i32]* %54, i64 0, i64 %56
  %58 = load i32, i32* %57, align 4
  %59 = call i32 (i8*, ...) @printf(i8* getelementptr inbounds ([4 x i8], [4 x i8]* @.str.1, i64 0, i64 0), i32 %58)
  %60 = load i32, i32* %4, align 4
  %61 = load i32, i32* %10, align 4
  %62 = icmp eq i32 %60, %61
  br i1 %62, label %63, label %70

63:                                               ; preds = %51
  %64 = load i32, i32* %5, align 4
  %65 = load i32, i32* %9, align 4
  %66 = icmp slt i32 %64, %65
  br i1 %66, label %67, label %70

67:                                               ; preds = %63
  %68 = load i32, i32* %5, align 4
  %69 = add nsw i32 %68, 1
  store i32 %69, i32* %5, align 4
  br label %118

70:                                               ; preds = %63, %51
  %71 = load i32, i32* %5, align 4
  %72 = load i32, i32* %9, align 4
  %73 = icmp eq i32 %71, %72
  br i1 %73, label %74, label %81

74:                                               ; preds = %70
  %75 = load i32, i32* %4, align 4
  %76 = load i32, i32* %11, align 4
  %77 = icmp slt i32 %75, %76
  br i1 %77, label %78, label %81

78:                                               ; preds = %74
  %79 = load i32, i32* %4, align 4
  %80 = add nsw i32 %79, 1
  store i32 %80, i32* %4, align 4
  br label %117

81:                                               ; preds = %74, %70
  %82 = load i32, i32* %4, align 4
  %83 = load i32, i32* %11, align 4
  %84 = icmp eq i32 %82, %83
  br i1 %84, label %85, label %92

85:                                               ; preds = %81
  %86 = load i32, i32* %5, align 4
  %87 = load i32, i32* %8, align 4
  %88 = icmp sgt i32 %86, %87
  br i1 %88, label %89, label %92

89:                                               ; preds = %85
  %90 = load i32, i32* %5, align 4
  %91 = add nsw i32 %90, -1
  store i32 %91, i32* %5, align 4
  br label %116

92:                                               ; preds = %85, %81
  %93 = load i32, i32* %5, align 4
  %94 = load i32, i32* %8, align 4
  %95 = icmp eq i32 %93, %94
  br i1 %95, label %96, label %112

96:                                               ; preds = %92
  %97 = load i32, i32* %4, align 4
  %98 = load i32, i32* %10, align 4
  %99 = add nsw i32 %98, 1
  %100 = icmp eq i32 %97, %99
  br i1 %100, label %101, label %112

101:                                              ; preds = %96
  %102 = load i32, i32* %5, align 4
  %103 = add nsw i32 %102, 1
  store i32 %103, i32* %5, align 4
  %104 = load i32, i32* %8, align 4
  %105 = add nsw i32 %104, 1
  store i32 %105, i32* %8, align 4
  %106 = load i32, i32* %9, align 4
  %107 = add nsw i32 %106, -1
  store i32 %107, i32* %9, align 4
  %108 = load i32, i32* %10, align 4
  %109 = add nsw i32 %108, 1
  store i32 %109, i32* %10, align 4
  %110 = load i32, i32* %11, align 4
  %111 = add nsw i32 %110, -1
  store i32 %111, i32* %11, align 4
  br label %115

112:                                              ; preds = %96, %92
  %113 = load i32, i32* %4, align 4
  %114 = add nsw i32 %113, -1
  store i32 %114, i32* %4, align 4
  br label %115

115:                                              ; preds = %112, %101
  br label %116

116:                                              ; preds = %115, %89
  br label %117

117:                                              ; preds = %116, %78
  br label %118

118:                                              ; preds = %117, %67
  br label %119

119:                                              ; preds = %118
  %120 = load i32, i32* %6, align 4
  %121 = add nsw i32 %120, 1
  store i32 %121, i32* %6, align 4
  br label %45

122:                                              ; preds = %45
  ret i32 0
}

declare dso_local i32 @__isoc99_scanf(i8*, ...) #1

declare dso_local i32 @printf(i8*, ...) #1


!llvm.module.flags = !{!0}
!llvm.ident = !{!1}

!0 = !{i32 1, !"wchar_size", i32 4}
!1 = !{!"clang version 10.0.0-4ubuntu1 "}
